; Function Attrs: mustprogress nofree norecurse nosync nounwind willreturn memory(argmem: readwrite) uwtable
define void @_ZN6icu_7712RegexMatcher16getMatchCallbackERPFaPKviERS2_R10UErrorCode(ptr noundef nonnull readonly align 8 captures(none) dereferenceable(336) %0, ptr noundef nonnull writeonly align 8 captures(none) dereferenceable(8) %1, ptr noundef nonnull writeonly align 8 captures(none) dereferenceable(8) %2, ptr noundef nonnull readonly align 4 captures(none) dereferenceable(4) %3) unnamed_addr #10 align 2 {
  %5 = load i32, ptr %3, align 4, !tbaa !13
  %6 = icmp slt i32 %5, 1
  br i1 %6, label %7, label %12

7:                                                ; preds = %4
  %8 = getelementptr inbounds nuw i8, ptr %0, i64 280
  %9 = load ptr, ptr %8, align 8, !tbaa !140
  store ptr %9, ptr %1, align 8, !tbaa !168
  %10 = getelementptr inbounds nuw i8, ptr %0, i64 288
  %11 = load ptr, ptr %10, align 8, !tbaa !141
  store ptr %11, ptr %2, align 8, !tbaa !168
  br label %12

12:                                               ; preds = %4, %7
  ret void
}